target datalayout = "e-m:e-p270:32:32-p271:32:32-p272:64:64-i64:64-i128:128-f80:128-n8:16:32:64-S128"
target triple = "x86_64-pc-linux-gnu"

%struct.translation_ctx_st = type { ptr, i32, i32, ptr, i32, i32, ptr, i64, ptr, ptr, [50 x i8], ptr, ptr, i64 }
%struct.evp_pkey_ctx_st = type { i32, ptr, ptr, ptr, ptr, %union.anon, %struct.anon.4, ptr, ptr, ptr, i32, i32, ptr, ptr, ptr, ptr, ptr, i8, ptr }
%union.anon = type { %struct.anon.0 }
%struct.anon.0 = type { ptr, ptr }
%struct.anon.4 = type { ptr, ptr, i64, i8 }

@.str.82 = private unnamed_addr constant [1 x i8] zeroinitializer, align 1

; Function Attrs: nounwind uwtable
define internal i32 @fix_cipher_md(i32 noundef %0, ptr noundef %1, ptr noundef %2, ptr noundef %3, ptr noundef %4) #0 {
  %6 = alloca i32, align 4
  %7 = alloca i32, align 4
  %8 = alloca ptr, align 8
  %9 = alloca ptr, align 8
  %10 = alloca ptr, align 8
  %11 = alloca ptr, align 8
  %12 = alloca i32, align 4
  %13 = alloca i32, align 4
  store i32 %0, ptr %7, align 4, !tbaa !8
  store ptr %1, ptr %8, align 8, !tbaa !11
  store ptr %2, ptr %9, align 8, !tbaa !43
  store ptr %3, ptr %10, align 8, !tbaa !10
  store ptr %4, ptr %11, align 8, !tbaa !10
  call void @llvm.lifetime.start.p0(i64 4, ptr %12) #9
  store i32 1, ptr %12, align 4, !tbaa !8
  %14 = load i32, ptr %7, align 4, !tbaa !8
  %15 = load ptr, ptr %8, align 8, !tbaa !11
  %16 = load ptr, ptr %9, align 8, !tbaa !43
  %17 = call i32 @default_check(i32 noundef %14, ptr noundef %15, ptr noundef %16)
  store i32 %17, ptr %12, align 4, !tbaa !8
  %18 = icmp sle i32 %17, 0
  br i1 %18, label %19, label %21

19:                                               ; preds = %5
  %20 = load i32, ptr %12, align 4, !tbaa !8
  store i32 %20, ptr %6, align 4
  store i32 1, ptr %13, align 4
  br label %168

21:                                               ; preds = %5
  %22 = load i32, ptr %7, align 4, !tbaa !8
  %23 = icmp eq i32 %22, 1
  br i1 %23, label %24, label %42

24:                                               ; preds = %21
  %25 = load ptr, ptr %9, align 8, !tbaa !43
  %26 = getelementptr inbounds nuw %struct.translation_ctx_st, ptr %25, i32 0, i32 1
  %27 = load i32, ptr %26, align 8, !tbaa !35
  %28 = icmp eq i32 %27, 1
  br i1 %28, label %29, label %42

29:                                               ; preds = %24
  %30 = load ptr, ptr %9, align 8, !tbaa !43
  %31 = getelementptr inbounds nuw %struct.translation_ctx_st, ptr %30, i32 0, i32 6
  %32 = load ptr, ptr %31, align 8, !tbaa !40
  %33 = load ptr, ptr %9, align 8, !tbaa !43
  %34 = getelementptr inbounds nuw %struct.translation_ctx_st, ptr %33, i32 0, i32 9
  store ptr %32, ptr %34, align 8, !tbaa !71
  %35 = load ptr, ptr %9, align 8, !tbaa !43
  %36 = getelementptr inbounds nuw %struct.translation_ctx_st, ptr %35, i32 0, i32 10
  %37 = getelementptr inbounds [50 x i8], ptr %36, i64 0, i64 0
  %38 = load ptr, ptr %9, align 8, !tbaa !43
  %39 = getelementptr inbounds nuw %struct.translation_ctx_st, ptr %38, i32 0, i32 6
  store ptr %37, ptr %39, align 8, !tbaa !40
  %40 = load ptr, ptr %9, align 8, !tbaa !43
  %41 = getelementptr inbounds nuw %struct.translation_ctx_st, ptr %40, i32 0, i32 5
  store i32 50, ptr %41, align 4, !tbaa !39
  br label %110

42:                                               ; preds = %24, %21
  %43 = load i32, ptr %7, align 4, !tbaa !8
  %44 = icmp eq i32 %43, 1
  br i1 %44, label %45, label %77

45:                                               ; preds = %42
  %46 = load ptr, ptr %9, align 8, !tbaa !43
  %47 = getelementptr inbounds nuw %struct.translation_ctx_st, ptr %46, i32 0, i32 1
  %48 = load i32, ptr %47, align 8, !tbaa !35
  %49 = icmp eq i32 %48, 2
  br i1 %49, label %50, label %77

50:                                               ; preds = %45
  %51 = load ptr, ptr %9, align 8, !tbaa !43
  %52 = getelementptr inbounds nuw %struct.translation_ctx_st, ptr %51, i32 0, i32 6
  %53 = load ptr, ptr %52, align 8, !tbaa !40
  %54 = icmp eq ptr %53, null
  br i1 %54, label %55, label %60

55:                                               ; preds = %50
  %56 = load ptr, ptr %9, align 8, !tbaa !43
  %57 = getelementptr inbounds nuw %struct.translation_ctx_st, ptr %56, i32 0, i32 5
  %58 = load i32, ptr %57, align 4, !tbaa !39
  %59 = call ptr @OBJ_nid2sn(i32 noundef %58)
  br label %66

60:                                               ; preds = %50
  %61 = load ptr, ptr %10, align 8, !tbaa !10
  %62 = load ptr, ptr %9, align 8, !tbaa !43
  %63 = getelementptr inbounds nuw %struct.translation_ctx_st, ptr %62, i32 0, i32 6
  %64 = load ptr, ptr %63, align 8, !tbaa !40
  %65 = call ptr %61(ptr noundef %64)
  br label %66

66:                                               ; preds = %60, %55
  %67 = phi ptr [ %59, %55 ], [ %65, %60 ]
  %68 = load ptr, ptr %9, align 8, !tbaa !43
  %69 = getelementptr inbounds nuw %struct.translation_ctx_st, ptr %68, i32 0, i32 6
  store ptr %67, ptr %69, align 8, !tbaa !40
  %70 = load ptr, ptr %9, align 8, !tbaa !43
  %71 = getelementptr inbounds nuw %struct.translation_ctx_st, ptr %70, i32 0, i32 6
  %72 = load ptr, ptr %71, align 8, !tbaa !40
  %73 = call i64 @strlen(ptr noundef %72) #10
  %74 = trunc i64 %73 to i32
  %75 = load ptr, ptr %9, align 8, !tbaa !43
  %76 = getelementptr inbounds nuw %struct.translation_ctx_st, ptr %75, i32 0, i32 5
  store i32 %74, ptr %76, align 4, !tbaa !39
  br label %109

77:                                               ; preds = %45, %42
  %78 = load i32, ptr %7, align 4, !tbaa !8
  %79 = icmp eq i32 %78, 8
  br i1 %79, label %80, label %108

80:                                               ; preds = %77
  %81 = load ptr, ptr %9, align 8, !tbaa !43
  %82 = getelementptr inbounds nuw %struct.translation_ctx_st, ptr %81, i32 0, i32 1
  %83 = load i32, ptr %82, align 8, !tbaa !35
  %84 = icmp eq i32 %83, 1
  br i1 %84, label %85, label %108

85:                                               ; preds = %80
  %86 = load ptr, ptr %9, align 8, !tbaa !43
  %87 = getelementptr inbounds nuw %struct.translation_ctx_st, ptr %86, i32 0, i32 6
  %88 = load ptr, ptr %87, align 8, !tbaa !40
  %89 = icmp eq ptr %88, null
  br i1 %89, label %90, label %91

90:                                               ; preds = %85
  br label %97

91:                                               ; preds = %85
  %92 = load ptr, ptr %10, align 8, !tbaa !10
  %93 = load ptr, ptr %9, align 8, !tbaa !43
  %94 = getelementptr inbounds nuw %struct.translation_ctx_st, ptr %93, i32 0, i32 6
  %95 = load ptr, ptr %94, align 8, !tbaa !40
  %96 = call ptr %92(ptr noundef %95)
  br label %97

97:                                               ; preds = %91, %90
  %98 = phi ptr [ @.str.82, %90 ], [ %96, %91 ]
  %99 = load ptr, ptr %9, align 8, !tbaa !43
  %100 = getelementptr inbounds nuw %struct.translation_ctx_st, ptr %99, i32 0, i32 6
  store ptr %98, ptr %100, align 8, !tbaa !40
  %101 = load ptr, ptr %9, align 8, !tbaa !43
  %102 = getelementptr inbounds nuw %struct.translation_ctx_st, ptr %101, i32 0, i32 6
  %103 = load ptr, ptr %102, align 8, !tbaa !40
  %104 = call i64 @strlen(ptr noundef %103) #10
  %105 = trunc i64 %104 to i32
  %106 = load ptr, ptr %9, align 8, !tbaa !43
  %107 = getelementptr inbounds nuw %struct.translation_ctx_st, ptr %106, i32 0, i32 5
  store i32 %105, ptr %107, align 4, !tbaa !39
  br label %108

108:                                              ; preds = %97, %80, %77
  br label %109

109:                                              ; preds = %108, %66
  br label %110

110:                                              ; preds = %109, %29
  %111 = load i32, ptr %7, align 4, !tbaa !8
  %112 = load ptr, ptr %8, align 8, !tbaa !11
  %113 = load ptr, ptr %9, align 8, !tbaa !43
  %114 = call i32 @default_fixup_args(i32 noundef %111, ptr noundef %112, ptr noundef %113)
  store i32 %114, ptr %12, align 4, !tbaa !8
  %115 = icmp sle i32 %114, 0
  br i1 %115, label %116, label %118

116:                                              ; preds = %110
  %117 = load i32, ptr %12, align 4, !tbaa !8
  store i32 %117, ptr %6, align 4
  store i32 1, ptr %13, align 4
  br label %168

118:                                              ; preds = %110
  %119 = load i32, ptr %7, align 4, !tbaa !8
  %120 = icmp eq i32 %119, 2
  br i1 %120, label %121, label %142

121:                                              ; preds = %118
  %122 = load ptr, ptr %9, align 8, !tbaa !43
  %123 = getelementptr inbounds nuw %struct.translation_ctx_st, ptr %122, i32 0, i32 1
  %124 = load i32, ptr %123, align 8, !tbaa !35
  %125 = icmp eq i32 %124, 1
  br i1 %125, label %126, label %142

126:                                              ; preds = %121
  %127 = load ptr, ptr %11, align 8, !tbaa !10
  %128 = load ptr, ptr %9, align 8, !tbaa !43
  %129 = getelementptr inbounds nuw %struct.translation_ctx_st, ptr %128, i32 0, i32 0
  %130 = load ptr, ptr %129, align 8, !tbaa !41
  %131 = getelementptr inbounds nuw %struct.evp_pkey_ctx_st, ptr %130, i32 0, i32 1
  %132 = load ptr, ptr %131, align 8, !tbaa !89
  %133 = load ptr, ptr %9, align 8, !tbaa !43
  %134 = getelementptr inbounds nuw %struct.translation_ctx_st, ptr %133, i32 0, i32 6
  %135 = load ptr, ptr %134, align 8, !tbaa !40
  %136 = call ptr %127(ptr noundef %132, ptr noundef %135)
  %137 = load ptr, ptr %9, align 8, !tbaa !43
  %138 = getelementptr inbounds nuw %struct.translation_ctx_st, ptr %137, i32 0, i32 9
  %139 = load ptr, ptr %138, align 8, !tbaa !71
  store ptr %136, ptr %139, align 8, !tbaa !10
  %140 = load ptr, ptr %9, align 8, !tbaa !43
  %141 = getelementptr inbounds nuw %struct.translation_ctx_st, ptr %140, i32 0, i32 5
  store i32 1, ptr %141, align 4, !tbaa !39
  br label %166

142:                                              ; preds = %121, %118
  %143 = load i32, ptr %7, align 4, !tbaa !8
  %144 = icmp eq i32 %143, 7
  br i1 %144, label %145, label %165

145:                                              ; preds = %142
  %146 = load ptr, ptr %9, align 8, !tbaa !43
  %147 = getelementptr inbounds nuw %struct.translation_ctx_st, ptr %146, i32 0, i32 1
  %148 = load i32, ptr %147, align 8, !tbaa !35
  %149 = icmp eq i32 %148, 2
  br i1 %149, label %150, label %165

150:                                              ; preds = %145
  %151 = load ptr, ptr %11, align 8, !tbaa !10
  %152 = load ptr, ptr %9, align 8, !tbaa !43
  %153 = getelementptr inbounds nuw %struct.translation_ctx_st, ptr %152, i32 0, i32 0
  %154 = load ptr, ptr %153, align 8, !tbaa !41
  %155 = getelementptr inbounds nuw %struct.evp_pkey_ctx_st, ptr %154, i32 0, i32 1
  %156 = load ptr, ptr %155, align 8, !tbaa !89
  %157 = load ptr, ptr %9, align 8, !tbaa !43
  %158 = getelementptr inbounds nuw %struct.translation_ctx_st, ptr %157, i32 0, i32 6
  %159 = load ptr, ptr %158, align 8, !tbaa !40
  %160 = call ptr %151(ptr noundef %156, ptr noundef %159)
  %161 = load ptr, ptr %9, align 8, !tbaa !43
  %162 = getelementptr inbounds nuw %struct.translation_ctx_st, ptr %161, i32 0, i32 6
  store ptr %160, ptr %162, align 8, !tbaa !40
  %163 = load ptr, ptr %9, align 8, !tbaa !43
  %164 = getelementptr inbounds nuw %struct.translation_ctx_st, ptr %163, i32 0, i32 5
  store i32 0, ptr %164, align 4, !tbaa !39
  br label %165

165:                                              ; preds = %150, %145, %142
  br label %166

166:                                              ; preds = %165, %126
  %167 = load i32, ptr %12, align 4, !tbaa !8
  store i32 %167, ptr %6, align 4
  store i32 1, ptr %13, align 4
  br label %168

168:                                              ; preds = %166, %116, %19
  call void @llvm.lifetime.end.p0(i64 4, ptr %12) #9
  %169 = load i32, ptr %6, align 4
  ret i32 %169
}

; Function Attrs: nounwind uwtable
define internal i32 @fix_cipher(i32 noundef %0, ptr noundef %1, ptr noundef %2) #0 {
  %4 = alloca i32, align 4
  %5 = alloca ptr, align 8
  %6 = alloca ptr, align 8
  store i32 %0, ptr %4, align 4, !tbaa !8
  store ptr %1, ptr %5, align 8, !tbaa !11
  store ptr %2, ptr %6, align 8, !tbaa !43
  %7 = load i32, ptr %4, align 4, !tbaa !8
  %8 = load ptr, ptr %5, align 8, !tbaa !11
  %9 = load ptr, ptr %6, align 8, !tbaa !43
  %10 = call i32 @fix_cipher_md(i32 noundef %7, ptr noundef %8, ptr noundef %9, ptr noundef @get_cipher_name, ptr noundef @get_cipher_by_name)
  ret i32 %10
}