; Function Attrs: nounwind uwtable
define internal i32 @fix_cipher(i32 noundef %0, ptr noundef captures(address_is_null) %1, ptr noundef %2) #0 {
  %4 = tail call fastcc i32 @default_check(i32 noundef %0, ptr noundef %1)
  %5 = icmp slt i32 %4, 1
  br i1 %5, label %fix_cipher_md.exit, label %6

6:                                                ; preds = %3
  switch i32 %0, label %.critedge.thread.i [
    i32 1, label %7
    i32 8, label %29
  ]

7:                                                ; preds = %6
  %8 = getelementptr inbounds nuw i8, ptr %2, i64 8
  %9 = load i32, ptr %8, align 8, !tbaa !29
  switch i32 %9, label %.critedge.thread.i [
    i32 1, label %10
    i32 2, label %15
  ]

10:                                               ; preds = %7
  %11 = getelementptr inbounds nuw i8, ptr %2, i64 32
  %12 = load ptr, ptr %11, align 8, !tbaa !35
  %13 = getelementptr inbounds nuw i8, ptr %2, i64 56
  store ptr %12, ptr %13, align 8, !tbaa !65
  %14 = getelementptr inbounds nuw i8, ptr %2, i64 64
  store ptr %14, ptr %11, align 8, !tbaa !35
  br label %.critedge.thread.sink.split.i

15:                                               ; preds = %7
  %16 = getelementptr inbounds nuw i8, ptr %2, i64 32
  %17 = load ptr, ptr %16, align 8, !tbaa !35
  %18 = icmp eq ptr %17, null
  br i1 %18, label %19, label %23

19:                                               ; preds = %15
  %20 = getelementptr inbounds nuw i8, ptr %2, i64 28
  %21 = load i32, ptr %20, align 4, !tbaa !34
  %22 = tail call ptr @OBJ_nid2sn(i32 noundef %21) #8
  br label %25

23:                                               ; preds = %15
  %24 = tail call ptr @EVP_CIPHER_get0_name(ptr noundef nonnull %17) #8
  br label %25

25:                                               ; preds = %23, %19
  %26 = phi ptr [ %22, %19 ], [ %24, %23 ]
  store ptr %26, ptr %16, align 8, !tbaa !35
  %27 = tail call i64 @strlen(ptr noundef nonnull dereferenceable(1) %26) #9
  %28 = trunc i64 %27 to i32
  br label %.critedge.thread.sink.split.i

29:                                               ; preds = %6
  %30 = getelementptr inbounds nuw i8, ptr %2, i64 8
  %31 = load i32, ptr %30, align 8, !tbaa !29
  %32 = icmp eq i32 %31, 1
  br i1 %32, label %33, label %.critedge.thread.i

33:                                               ; preds = %29
  %34 = getelementptr inbounds nuw i8, ptr %2, i64 32
  %35 = load ptr, ptr %34, align 8, !tbaa !35
  %36 = icmp eq ptr %35, null
  br i1 %36, label %39, label %37

37:                                               ; preds = %33
  %38 = tail call ptr @EVP_CIPHER_get0_name(ptr noundef nonnull %35) #8
  br label %39

39:                                               ; preds = %37, %33
  %40 = phi ptr [ %38, %37 ], [ @.str.82, %33 ]
  store ptr %40, ptr %34, align 8, !tbaa !35
  %41 = tail call i64 @strlen(ptr noundef nonnull dereferenceable(1) %40) #9
  %42 = trunc i64 %41 to i32
  br label %.critedge.thread.sink.split.i

.critedge.thread.sink.split.i:                    ; preds = %39, %25, %10
  %.sink.i = phi i32 [ %28, %25 ], [ %42, %39 ], [ 50, %10 ]
  %43 = getelementptr inbounds nuw i8, ptr %2, i64 28
  store i32 %.sink.i, ptr %43, align 4, !tbaa !34
  br label %.critedge.thread.i

.critedge.thread.i:                               ; preds = %.critedge.thread.sink.split.i, %29, %7, %6
  %44 = tail call i32 @default_fixup_args(i32 noundef %0, ptr noundef %1, ptr noundef %2)
  %45 = icmp slt i32 %44, 1
  br i1 %45, label %fix_cipher_md.exit, label %46

46:                                               ; preds = %.critedge.thread.i
  switch i32 %0, label %fix_cipher_md.exit [
    i32 2, label %47
    i32 7, label %60
  ]

47:                                               ; preds = %46
  %48 = getelementptr inbounds nuw i8, ptr %2, i64 8
  %49 = load i32, ptr %48, align 8, !tbaa !29
  %50 = icmp eq i32 %49, 1
  br i1 %50, label %51, label %fix_cipher_md.exit

51:                                               ; preds = %47
  %52 = load ptr, ptr %2, align 8, !tbaa !36
  %53 = getelementptr inbounds nuw i8, ptr %52, i64 8
  %54 = load ptr, ptr %53, align 8, !tbaa !66
  %55 = getelementptr inbounds nuw i8, ptr %2, i64 32
  %56 = load ptr, ptr %55, align 8, !tbaa !35
  %57 = tail call ptr @evp_get_cipherbyname_ex(ptr noundef %54, ptr noundef %56) #8
  %58 = getelementptr inbounds nuw i8, ptr %2, i64 56
  %59 = load ptr, ptr %58, align 8, !tbaa !65
  store ptr %57, ptr %59, align 8, !tbaa !46
  br label %.sink.split.i

60:                                               ; preds = %46
  %61 = getelementptr inbounds nuw i8, ptr %2, i64 8
  %62 = load i32, ptr %61, align 8, !tbaa !29
  %63 = icmp eq i32 %62, 2
  br i1 %63, label %64, label %fix_cipher_md.exit

64:                                               ; preds = %60
  %65 = load ptr, ptr %2, align 8, !tbaa !36
  %66 = getelementptr inbounds nuw i8, ptr %65, i64 8
  %67 = load ptr, ptr %66, align 8, !tbaa !66
  %68 = getelementptr inbounds nuw i8, ptr %2, i64 32
  %69 = load ptr, ptr %68, align 8, !tbaa !35
  %70 = tail call ptr @evp_get_cipherbyname_ex(ptr noundef %67, ptr noundef %69) #8
  store ptr %70, ptr %68, align 8, !tbaa !35
  br label %.sink.split.i

.sink.split.i:                                    ; preds = %64, %51
  %.sink52.i = phi i32 [ 1, %51 ], [ 0, %64 ]
  %71 = getelementptr inbounds nuw i8, ptr %2, i64 28
  store i32 %.sink52.i, ptr %71, align 4, !tbaa !34
  br label %fix_cipher_md.exit

fix_cipher_md.exit:                               ; preds = %3, %.critedge.thread.i, %46, %47, %60, %.sink.split.i
  %.0.i = phi i32 [ %4, %3 ], [ %44, %.critedge.thread.i ], [ %44, %46 ], [ %44, %60 ], [ %44, %47 ], [ %44, %.sink.split.i ]
  ret i32 %.0.i
}